; Function Attrs: mustprogress nounwind uwtable
define hidden noundef ptr @_ZN5Klass21pack_secondary_supersEP15ClassLoaderDataP13GrowableArrayIPS_ES5_RmP10JavaThread(ptr noundef %0, ptr nocapture noundef %1, ptr nocapture noundef readonly %2, ptr nocapture noundef nonnull writeonly align 8 dereferenceable(8) %3, ptr noundef %4) local_unnamed_addr #0 align 2 {
  %6 = load i32, ptr %1, align 4
  %7 = load i32, ptr %2, align 4
  %8 = add nsw i32 %7, %6
  %9 = tail call i32 @llvm.smax.i32(i32 %8, i32 1)
  %narrow.i.i.i = add nuw i32 %9, 1
  %10 = sext i32 %narrow.i.i.i to i64
  %11 = tail call noundef ptr @_ZN9Metaspace8allocateEP15ClassLoaderDatamN12MetaspaceObj4TypeEP10JavaThread(ptr noundef %0, i64 noundef %10, i32 noundef 5, ptr noundef %4) #21
  %12 = icmp eq ptr %11, null
  br i1 %12, label %_ZN15MetadataFactory9new_arrayIP5KlassEEP5ArrayIT_EP15ClassLoaderDataiP10JavaThread.exit, label %13

13:                                               ; preds = %5
  store i32 %8, ptr %11, align 8
  br label %_ZN15MetadataFactory9new_arrayIP5KlassEEP5ArrayIT_EP15ClassLoaderDataiP10JavaThread.exit

_ZN15MetadataFactory9new_arrayIP5KlassEEP5ArrayIT_EP15ClassLoaderDataiP10JavaThread.exit: ; preds = %5, %13
  %14 = getelementptr inbounds i8, ptr %4, i64 8
  %15 = load ptr, ptr %14, align 8
  %.not = icmp eq ptr %15, null
  br i1 %.not, label %16, label %46

16:                                               ; preds = %_ZN15MetadataFactory9new_arrayIP5KlassEEP5ArrayIT_EP15ClassLoaderDataiP10JavaThread.exit
  %17 = load i32, ptr %1, align 4
  %18 = icmp sgt i32 %17, 0
  br i1 %18, label %.lr.ph, label %.preheader

.lr.ph:                                           ; preds = %16
  %19 = getelementptr inbounds i8, ptr %1, i64 8
  %20 = getelementptr inbounds i8, ptr %11, i64 8
  %wide.trip.count = zext nneg i32 %17 to i64
  br label %26

.preheader:                                       ; preds = %26, %16
  %21 = load i32, ptr %2, align 4
  %22 = icmp sgt i32 %21, 0
  br i1 %22, label %.lr.ph30, label %._crit_edge

.lr.ph30:                                         ; preds = %.preheader
  %23 = getelementptr inbounds i8, ptr %2, i64 8
  %24 = getelementptr inbounds i8, ptr %11, i64 8
  %25 = sext i32 %17 to i64
  %invariant.gep = getelementptr ptr, ptr %24, i64 %25
  br label %34

26:                                               ; preds = %.lr.ph, %26
  %indvars.iv = phi i64 [ 0, %.lr.ph ], [ %indvars.iv.next, %26 ]
  %27 = load ptr, ptr %19, align 8
  %28 = load i32, ptr %1, align 8
  %29 = add nsw i32 %28, -1
  store i32 %29, ptr %1, align 8
  %30 = sext i32 %29 to i64
  %31 = getelementptr inbounds ptr, ptr %27, i64 %30
  %32 = load ptr, ptr %31, align 8
  %33 = getelementptr inbounds ptr, ptr %20, i64 %indvars.iv
  store ptr %32, ptr %33, align 8
  %indvars.iv.next = add nuw nsw i64 %indvars.iv, 1
  %exitcond.not = icmp eq i64 %indvars.iv.next, %wide.trip.count
  br i1 %exitcond.not, label %.preheader, label %26, !llvm.loop !21

34:                                               ; preds = %.lr.ph30, %34
  %indvars.iv32 = phi i64 [ 0, %.lr.ph30 ], [ %indvars.iv.next33, %34 ]
  %35 = load ptr, ptr %23, align 8
  %36 = getelementptr inbounds ptr, ptr %35, i64 %indvars.iv32
  %37 = load ptr, ptr %36, align 8
  %gep = getelementptr ptr, ptr %invariant.gep, i64 %indvars.iv32
  store ptr %37, ptr %gep, align 8
  %indvars.iv.next33 = add nuw nsw i64 %indvars.iv32, 1
  %38 = load i32, ptr %2, align 4
  %39 = sext i32 %38 to i64
  %40 = icmp slt i64 %indvars.iv.next33, %39
  br i1 %40, label %34, label %._crit_edge, !llvm.loop !22

._crit_edge:                                      ; preds = %34, %.preheader
  %41 = load i8, ptr @UseSecondarySupersTable, align 1
  %42 = trunc i8 %41 to i1
  br i1 %42, label %43, label %45

43:                                               ; preds = %._crit_edge
  %44 = tail call noundef i64 @_ZN5Klass21hash_secondary_supersEP5ArrayIPS_Eb(ptr noundef %11, i1 noundef zeroext true)
  br label %45

45:                                               ; preds = %._crit_edge, %43
  %storemerge = phi i64 [ %44, %43 ], [ 0, %._crit_edge ]
  store i64 %storemerge, ptr %3, align 8
  br label %46

46:                                               ; preds = %_ZN15MetadataFactory9new_arrayIP5KlassEEP5ArrayIT_EP15ClassLoaderDataiP10JavaThread.exit, %45
  %.026 = phi ptr [ %11, %45 ], [ null, %_ZN15MetadataFactory9new_arrayIP5KlassEEP5ArrayIT_EP15ClassLoaderDataiP10JavaThread.exit ]
  ret ptr %.026
}